; Function Attrs: mustprogress nofree norecurse nosync nounwind willreturn memory(argmem: read) uwtable
define range(i32 0, 2) i32 @wolfSSL_session_reused(ptr noundef readonly captures(address_is_null) %0) local_unnamed_addr #9 {
  %.not = icmp eq ptr %0, null
  br i1 %.not, label %8, label %2

2:                                                ; preds = %1
  %3 = getelementptr inbounds nuw i8, ptr %0, i64 1024
  %4 = load i64, ptr %3, align 8
  %5 = trunc i64 %4 to i32
  %6 = lshr i32 %5, 11
  %7 = and i32 %6, 1
  br label %8

8:                                                ; preds = %1, %2
  %.0 = phi i32 [ %7, %2 ], [ 0, %1 ]
  ret i32 %.0
}